; ModuleID = 'source-C-CXX/24/528.cpp'
source_filename = "source-C-CXX/24/528.cpp"
target datalayout = "e-m:e-p270:32:32-p271:32:32-p272:64:64-i64:64-f80:128-n8:16:32:64-S128"
target triple = "x86_64-pc-linux-gnu"

%"class.std::ios_base::Init" = type { i8 }
%"class.std::basic_istream" = type { i32 (...)**, i64, %"class.std::basic_ios" }
%"class.std::basic_ios" = type { %"class.std::ios_base", %"class.std::basic_ostream"*, i8, i8, %"class.std::basic_streambuf"*, %"class.std::ctype"*, %"class.std::num_put"*, %"class.std::num_get"* }
%"class.std::ios_base" = type { i32 (...)**, i64, i64, i32, i32, i32, %"struct.std::ios_base::_Callback_list"*, %"struct.std::ios_base::_Words", [8 x %"struct.std::ios_base::_Words"], i32, %"struct.std::ios_base::_Words"*, %"class.std::locale" }
%"struct.std::ios_base::_Callback_list" = type { %"struct.std::ios_base::_Callback_list"*, void (i32, %"class.std::ios_base"*, i32)*, i32, i32 }
%"struct.std::ios_base::_Words" = type { i8*, i64 }
%"class.std::locale" = type { %"class.std::locale::_Impl"* }
%"class.std::locale::_Impl" = type { i32, %"class.std::locale::facet"**, i64, %"class.std::locale::facet"**, i8** }
%"class.std::locale::facet" = type <{ i32 (...)**, i32, [4 x i8] }>
%"class.std::basic_ostream" = type { i32 (...)**, %"class.std::basic_ios" }
%"class.std::basic_streambuf" = type { i32 (...)**, i8*, i8*, i8*, i8*, i8*, i8*, %"class.std::locale" }
%"class.std::ctype" = type <{ %"class.std::locale::facet.base", [4 x i8], %struct.__locale_struct*, i8, [7 x i8], i32*, i32*, i16*, i8, [256 x i8], [256 x i8], i8, [6 x i8] }>
%"class.std::locale::facet.base" = type <{ i32 (...)**, i32 }>
%struct.__locale_struct = type { [13 x %struct.__locale_data*], i16*, i32*, i32*, [13 x i8*] }
%struct.__locale_data = type opaque
%"class.std::num_put" = type { %"class.std::locale::facet.base", [4 x i8] }
%"class.std::num_get" = type { %"class.std::locale::facet.base", [4 x i8] }

@_ZStL8__ioinit = internal global %"class.std::ios_base::Init" zeroinitializer, align 1
@__dso_handle = external hidden global i8
@_ZSt3cin = external global %"class.std::basic_istream", align 8
@_ZSt4cout = external global %"class.std::basic_ostream", align 8
@llvm.global_ctors = appending global [1 x { i32, void ()*, i8* }] [{ i32, void ()*, i8* } { i32 65535, void ()* @_GLOBAL__sub_I_528.cpp, i8* null }]

declare void @_ZNSt8ios_base4InitC1Ev(%"class.std::ios_base::Init"* nonnull align 1 dereferenceable(1)) unnamed_addr #0

; Function Attrs: nounwind
declare void @_ZNSt8ios_base4InitD1Ev(%"class.std::ios_base::Init"* nonnull align 1 dereferenceable(1)) unnamed_addr #1

; Function Attrs: nofree nounwind
declare i32 @__cxa_atexit(void (i8*)*, i8*, i8*) local_unnamed_addr #2

; Function Attrs: mustprogress norecurse sspstrong uwtable
define dso_local i32 @main() local_unnamed_addr #3 {
  %1 = alloca i32, align 4
  %2 = alloca [1000 x i32], align 16
  %3 = bitcast i32* %1 to i8*
  call void @llvm.lifetime.start.p0i8(i64 4, i8* nonnull %3) #7
  %4 = bitcast [1000 x i32]* %2 to i8*
  call void @llvm.lifetime.start.p0i8(i64 4000, i8* nonnull %4) #7
  call void @llvm.memset.p0i8.i64(i8* noundef nonnull align 16 dereferenceable(4000) %4, i8 0, i64 4000, i1 false)
  %5 = call nonnull align 8 dereferenceable(16) %"class.std::basic_istream"* @_ZNSirsERi(%"class.std::basic_istream"* nonnull align 8 dereferenceable(16) @_ZSt3cin, i32* nonnull align 4 dereferenceable(4) %1)
  %6 = getelementptr inbounds [1000 x i32], [1000 x i32]* %2, i64 0, i64 0
  store i32 1, i32* %6, align 16, !tbaa !5
  %7 = load i32, i32* %1, align 4, !tbaa !5
  %8 = icmp sgt i32 %7, 0
  br i1 %8, label %10, label %9

9:                                                ; preds = %35, %0
  br label %40

10:                                               ; preds = %0, %38
  %11 = phi i32 [ %39, %38 ], [ 1, %0 ]
  %12 = phi i32 [ %36, %38 ], [ 0, %0 ]
  %13 = shl nsw i32 %11, 1
  store i32 %13, i32* %6, align 16, !tbaa !5
  br label %14

14:                                               ; preds = %31, %10
  %15 = phi i32 [ %13, %10 ], [ %32, %31 ]
  %16 = phi i64 [ 0, %10 ], [ %33, %31 ]
  %17 = icmp sgt i32 %15, 9
  br i1 %17, label %18, label %26

18:                                               ; preds = %14
  %19 = getelementptr inbounds [1000 x i32], [1000 x i32]* %2, i64 0, i64 %16
  %20 = add nuw nsw i64 %16, 1
  %21 = getelementptr inbounds [1000 x i32], [1000 x i32]* %2, i64 0, i64 %20
  %22 = load i32, i32* %21, align 4, !tbaa !5
  %23 = shl nsw i32 %22, 1
  %24 = or i32 %23, 1
  store i32 %24, i32* %21, align 4, !tbaa !5
  %25 = add nsw i32 %15, -10
  store i32 %25, i32* %19, align 4, !tbaa !5
  br label %31

26:                                               ; preds = %14
  %27 = add nuw nsw i64 %16, 1
  %28 = getelementptr inbounds [1000 x i32], [1000 x i32]* %2, i64 0, i64 %27
  %29 = load i32, i32* %28, align 4, !tbaa !5
  %30 = shl nsw i32 %29, 1
  store i32 %30, i32* %28, align 4, !tbaa !5
  br label %31

31:                                               ; preds = %18, %26
  %32 = phi i32 [ %24, %18 ], [ %30, %26 ]
  %33 = phi i64 [ %20, %18 ], [ %27, %26 ]
  %34 = icmp eq i64 %33, 100
  br i1 %34, label %35, label %14, !llvm.loop !9

35:                                               ; preds = %31
  %36 = add nuw nsw i32 %12, 1
  %37 = icmp eq i32 %36, %7
  br i1 %37, label %9, label %38, !llvm.loop !11

38:                                               ; preds = %35
  %39 = load i32, i32* %6, align 16, !tbaa !5
  br label %10

40:                                               ; preds = %90, %9
  %41 = phi i32 [ 90, %9 ], [ %91, %90 ]
  %42 = zext i32 %41 to i64
  %43 = getelementptr inbounds [1000 x i32], [1000 x i32]* %2, i64 0, i64 %42
  %44 = load i32, i32* %43, align 8, !tbaa !5
  %45 = icmp eq i32 %44, 0
  br i1 %45, label %46, label %52

46:                                               ; preds = %40
  %47 = add nsw i32 %41, -1
  %48 = zext i32 %47 to i64
  %49 = getelementptr inbounds [1000 x i32], [1000 x i32]* %2, i64 0, i64 %48
  %50 = load i32, i32* %49, align 4, !tbaa !5
  %51 = icmp eq i32 %50, 0
  br i1 %51, label %66, label %52

52:                                               ; preds = %84, %78, %72, %66, %46, %40
  %53 = phi i32 [ %41, %40 ], [ %47, %46 ], [ %67, %66 ], [ %73, %72 ], [ %79, %78 ], [ %85, %84 ]
  %54 = icmp sgt i32 %53, -1
  br i1 %54, label %55, label %65

55:                                               ; preds = %90, %52
  %56 = phi i32 [ %53, %52 ], [ 0, %90 ]
  %57 = zext i32 %56 to i64
  br label %58

58:                                               ; preds = %55, %58
  %59 = phi i64 [ %57, %55 ], [ %63, %58 ]
  %60 = getelementptr inbounds [1000 x i32], [1000 x i32]* %2, i64 0, i64 %59
  %61 = load i32, i32* %60, align 4, !tbaa !5
  %62 = call nonnull align 8 dereferenceable(8) %"class.std::basic_ostream"* @_ZNSolsEi(%"class.std::basic_ostream"* nonnull align 8 dereferenceable(8) @_ZSt4cout, i32 %61)
  %63 = add nsw i64 %59, -1
  %64 = icmp sgt i64 %59, 0
  br i1 %64, label %58, label %65, !llvm.loop !12

65:                                               ; preds = %58, %52
  call void @llvm.lifetime.end.p0i8(i64 4000, i8* nonnull %4) #7
  call void @llvm.lifetime.end.p0i8(i64 4, i8* nonnull %3) #7
  ret i32 0

66:                                               ; preds = %46
  %67 = add nsw i32 %41, -2
  %68 = zext i32 %67 to i64
  %69 = getelementptr inbounds [1000 x i32], [1000 x i32]* %2, i64 0, i64 %68
  %70 = load i32, i32* %69, align 8, !tbaa !5
  %71 = icmp eq i32 %70, 0
  br i1 %71, label %72, label %52

72:                                               ; preds = %66
  %73 = add nsw i32 %41, -3
  %74 = zext i32 %73 to i64
  %75 = getelementptr inbounds [1000 x i32], [1000 x i32]* %2, i64 0, i64 %74
  %76 = load i32, i32* %75, align 4, !tbaa !5
  %77 = icmp eq i32 %76, 0
  br i1 %77, label %78, label %52

78:                                               ; preds = %72
  %79 = add nsw i32 %41, -4
  %80 = zext i32 %79 to i64
  %81 = getelementptr inbounds [1000 x i32], [1000 x i32]* %2, i64 0, i64 %80
  %82 = load i32, i32* %81, align 8, !tbaa !5
  %83 = icmp eq i32 %82, 0
  br i1 %83, label %84, label %52

84:                                               ; preds = %78
  %85 = add nsw i32 %41, -5
  %86 = zext i32 %85 to i64
  %87 = getelementptr inbounds [1000 x i32], [1000 x i32]* %2, i64 0, i64 %86
  %88 = load i32, i32* %87, align 4, !tbaa !5
  %89 = icmp eq i32 %88, 0
  br i1 %89, label %90, label %52

90:                                               ; preds = %84
  %91 = add nsw i32 %41, -6
  %92 = icmp eq i32 %85, 1
  br i1 %92, label %55, label %40, !llvm.loop !13
}

; Function Attrs: argmemonly mustprogress nofree nosync nounwind willreturn
declare void @llvm.lifetime.start.p0i8(i64 immarg, i8* nocapture) #4

; Function Attrs: argmemonly mustprogress nofree nounwind willreturn writeonly
declare void @llvm.memset.p0i8.i64(i8* nocapture writeonly, i8, i64, i1 immarg) #5

declare nonnull align 8 dereferenceable(16) %"class.std::basic_istream"* @_ZNSirsERi(%"class.std::basic_istream"* nonnull align 8 dereferenceable(16), i32* nonnull align 4 dereferenceable(4)) local_unnamed_addr #0

declare nonnull align 8 dereferenceable(8) %"class.std::basic_ostream"* @_ZNSolsEi(%"class.std::basic_ostream"* nonnull align 8 dereferenceable(8), i32) local_unnamed_addr #0

; Function Attrs: argmemonly mustprogress nofree nosync nounwind willreturn
declare void @llvm.lifetime.end.p0i8(i64 immarg, i8* nocapture) #4

; Function Attrs: sspstrong uwtable
define internal void @_GLOBAL__sub_I_528.cpp() #6 section ".text.startup" {
  tail call void @_ZNSt8ios_base4InitC1Ev(%"class.std::ios_base::Init"* nonnull align 1 dereferenceable(1) @_ZStL8__ioinit)
  %1 = tail call i32 @__cxa_atexit(void (i8*)* bitcast (void (%"class.std::ios_base::Init"*)* @_ZNSt8ios_base4InitD1Ev to void (i8*)*), i8* getelementptr inbounds (%"class.std::ios_base::Init", %"class.std::ios_base::Init"* @_ZStL8__ioinit, i64 0, i32 0), i8* nonnull @__dso_handle) #7
  ret void
}


!llvm.module.flags = !{!0, !1, !2, !3}
!llvm.ident = !{!4}

!0 = !{i32 1, !"wchar_size", i32 4}
!1 = !{i32 7, !"PIC Level", i32 2}
!2 = !{i32 7, !"PIE Level", i32 2}
!3 = !{i32 7, !"uwtable", i32 1}
!4 = !{!"clang version 13.0.0"}
!5 = !{!6, !6, i64 0}
!6 = !{!"int", !7, i64 0}
!7 = !{!"omnipotent char", !8, i64 0}
!8 = !{!"Simple C++ TBAA"}
!9 = distinct !{!9, !10}
!10 = !{!"llvm.loop.mustprogress"}
!11 = distinct !{!11, !10}
!12 = distinct !{!12, !10}
!13 = distinct !{!13, !10}
